target datalayout = "e-m:e-p270:32:32-p271:32:32-p272:64:64-i64:64-i128:128-f80:128-n8:16:32:64-S128"
target triple = "x86_64-pc-linux-gnu"

%class.QString = type { ptr }
%class.LayerDialog = type { %class.QDockWidget, ptr, ptr, ptr, ptr, ptr, %class.QMap, i8, [4 x %class.QString], [4 x %class.QMap.16], i32, %"class.std::vector.17", i32, ptr, ptr, i32, ptr, ptr, ptr }
%class.QDockWidget = type { %class.QWidget }
%class.QWidget = type { %class.QObject, %class.QPaintDevice, ptr }
%class.QObject = type { ptr, %class.QScopedPointer }
%class.QScopedPointer = type { ptr }
%class.QPaintDevice = type { ptr, i16, ptr }
%class.QMap = type { ptr }
%class.QMap.16 = type { ptr }
%"class.std::vector.17" = type { %"struct.std::_Vector_base.18" }
%"struct.std::_Vector_base.18" = type { %"struct.std::_Vector_base<int, std::allocator<int>>::_Vector_impl" }
%"struct.std::_Vector_base<int, std::allocator<int>>::_Vector_impl" = type { %"struct.std::_Vector_base<int, std::allocator<int>>::_Vector_impl_data" }
%"struct.std::_Vector_base<int, std::allocator<int>>::_Vector_impl_data" = type { ptr, ptr, ptr }
%class.Ui_layerDialog = type { ptr, ptr, ptr, ptr, ptr, ptr, ptr, ptr, ptr, ptr, ptr, ptr, ptr, ptr, ptr, ptr, ptr, ptr, ptr, ptr, ptr, ptr, ptr, ptr, ptr, ptr, ptr, ptr, ptr }
%class.MultiViewer_Container = type { %class.Splitter, %class.MeshDocument, ptr, i32, ptr, %class.QList.61 }
%class.Splitter = type { %class.QSplitter }
%class.QSplitter = type { %class.QFrame }
%class.QFrame = type { %class.QWidget }
%class.MeshDocument = type { %class.QObject, %class.GLLogStream, %class.FilterScript, %"class.std::__cxx11::list.43", %"class.std::__cxx11::list.48", i32, i32, %class.QString, %class.QString, %class.MeshDocumentStateData, i8, ptr, ptr }
%class.GLLogStream = type { %class.QObject, i32, %class.QList.36, %class.QMultiMap }
%class.QList.36 = type { %union.anon.38 }
%union.anon.38 = type { %struct.QListData }
%struct.QListData = type { ptr }
%class.QMultiMap = type { %class.QMap.39 }
%class.QMap.39 = type { ptr }
%class.FilterScript = type { %class.QObject, %class.QList.40 }
%class.QList.40 = type { %union.anon.42 }
%union.anon.42 = type { %struct.QListData }
%"class.std::__cxx11::list.43" = type { %"class.std::__cxx11::_List_base.44" }
%"class.std::__cxx11::_List_base.44" = type { %"struct.std::__cxx11::_List_base<MeshModel, std::allocator<MeshModel>>::_List_impl" }
%"struct.std::__cxx11::_List_base<MeshModel, std::allocator<MeshModel>>::_List_impl" = type { %"struct.std::__detail::_List_node_header" }
%"struct.std::__detail::_List_node_header" = type { %"struct.std::__detail::_List_node_base", i64 }
%"struct.std::__detail::_List_node_base" = type { ptr, ptr }
%"class.std::__cxx11::list.48" = type { %"class.std::__cxx11::_List_base.49" }
%"class.std::__cxx11::_List_base.49" = type { %"struct.std::__cxx11::_List_base<RasterModel, std::allocator<RasterModel>>::_List_impl" }
%"struct.std::__cxx11::_List_base<RasterModel, std::allocator<RasterModel>>::_List_impl" = type { %"struct.std::__detail::_List_node_header" }
%class.MeshDocumentStateData = type { %class.QReadWriteLock, %class.QMap.55 }
%class.QReadWriteLock = type { %class.QAtomicPointer }
%class.QAtomicPointer = type { %class.QBasicAtomicPointer }
%class.QBasicAtomicPointer = type { %"struct.std::atomic.53" }
%"struct.std::atomic.53" = type { %"struct.std::__atomic_base.54" }
%"struct.std::__atomic_base.54" = type { ptr }
%class.QMap.55 = type { ptr }
%class.QList.61 = type { %union.anon.63 }
%union.anon.63 = type { %struct.QListData }
%class.RasterModel = type { %class.MeshLabRenderRaster, i8, i32, %class.QString }
%class.MeshLabRenderRaster = type { %"class.vcg::Shot", %class.QList.58, ptr }
%"class.vcg::Shot" = type { %"class.vcg::Camera", %"class.vcg::Shot<float>::ReferenceFrame" }
%"class.vcg::Camera" = type { float, %"class.vcg::Point2", %"class.vcg::Point2.56", %"class.vcg::Point2.56", %"class.vcg::Point2.56", %"struct.std::array", i32 }
%"class.vcg::Point2" = type { [2 x i32] }
%"class.vcg::Point2.56" = type { [2 x float] }
%"struct.std::array" = type { [4 x float] }
%"class.vcg::Shot<float>::ReferenceFrame" = type { %"class.vcg::Matrix44", %"class.vcg::Point3" }
%"class.vcg::Matrix44" = type { %"struct.std::array.57" }
%"struct.std::array.57" = type { [16 x float] }
%"class.vcg::Point3" = type { [3 x float] }
%class.QList.58 = type { %union.anon.60 }
%union.anon.60 = type { %struct.QListData }
%class.MainWindow = type { %class.QMainWindow, %class.MainWindowSetting, %class.QNetworkAccessManager, i32, i32, i8, ptr, ptr, ptr, ptr, ptr, ptr, %class.RichParameterList, ptr, %class.QByteArray, %class.QDir, ptr, ptr, ptr, ptr, ptr, ptr, ptr, ptr, ptr, ptr, ptr, ptr, ptr, ptr, ptr, ptr, ptr, ptr, ptr, ptr, ptr, ptr, ptr, ptr, ptr, ptr, ptr, ptr, ptr, ptr, ptr, ptr, ptr, ptr, ptr, ptr, ptr, ptr, ptr, ptr, ptr, ptr, ptr, ptr, ptr, ptr, ptr, ptr, ptr, ptr, ptr, ptr, ptr, ptr, ptr, ptr, ptr, ptr, [9 x ptr], [9 x ptr], ptr, ptr, ptr, ptr, ptr, ptr, ptr, ptr, ptr, ptr, ptr, ptr, ptr, ptr, ptr, ptr, ptr, ptr, ptr, ptr, ptr, ptr, ptr, ptr, ptr, ptr, ptr, ptr, ptr, ptr, ptr, ptr, ptr, ptr, ptr, ptr, ptr, ptr, ptr, ptr, ptr, ptr, ptr, ptr, ptr, ptr, ptr, ptr, ptr, ptr, ptr, ptr, ptr, ptr, ptr, ptr, ptr, ptr, ptr, ptr, ptr, ptr, ptr, ptr, ptr, ptr }
%class.QMainWindow = type { %class.QWidget }
%class.MainWindowSetting = type <{ i64, i8, [7 x i8], i64, i64, i64, i32, i32, %class.QString, i8, i8, [6 x i8] }>
%class.QNetworkAccessManager = type { %class.QObject }
%class.RichParameterList = type { %"class.std::__cxx11::list" }
%"class.std::__cxx11::list" = type { %"class.std::__cxx11::_List_base" }
%"class.std::__cxx11::_List_base" = type { %"struct.std::__cxx11::_List_base<RichParameter *, std::allocator<RichParameter *>>::_List_impl" }
%"struct.std::__cxx11::_List_base<RichParameter *, std::allocator<RichParameter *>>::_List_impl" = type { %"struct.std::__detail::_List_node_header" }
%class.QByteArray = type { ptr }
%class.QDir = type { %class.QSharedDataPointer }
%class.QSharedDataPointer = type { ptr }
%class.QTreeWidgetItem.base = type <{ ptr, i32, [4 x i8], %class.QVector, ptr, ptr, ptr, %class.QList, %class.QFlags.22 }>
%class.QVector = type { ptr }
%class.QList = type { %union.anon }
%union.anon = type { %struct.QListData }
%class.QFlags.22 = type { i32 }
%class.RasterTreeWidgetItem = type { %class.QTreeWidgetItem.base, i32 }

@_ZTI15QTreeWidgetItem = external constant ptr
@_ZTI20RasterTreeWidgetItem = linkonce_odr constant { ptr, ptr, ptr } { ptr getelementptr inbounds (ptr, ptr @_ZTVN10__cxxabiv120__si_class_type_infoE, i64 2), ptr @_ZTS20RasterTreeWidgetItem, ptr @_ZTI15QTreeWidgetItem }, comdat, align 8

; Function Attrs: mustprogress nounwind uwtable
define linkonce_odr noundef ptr @_ZNK10MainWindow20currentViewContainerEv(ptr noundef nonnull align 8 dereferenceable(1376) %0) #0 comdat align 2 {
  %2 = alloca ptr, align 8
  store ptr %0, ptr %2, align 8
  %3 = load ptr, ptr %2, align 8
  %4 = getelementptr inbounds %class.MainWindow, ptr %3, i32 0, i32 141
  %5 = load ptr, ptr %4, align 8
  ret ptr %5
}

; Function Attrs: mustprogress nounwind uwtable
define linkonce_odr noundef zeroext i1 @_ZNK11RasterModel9isVisibleEv(ptr noundef nonnull align 8 dereferenceable(168) %0) #0 comdat align 2 {
  %2 = alloca ptr, align 8
  store ptr %0, ptr %2, align 8
  %3 = load ptr, ptr %2, align 8
  %4 = getelementptr inbounds %class.RasterModel, ptr %3, i32 0, i32 1
  %5 = load i8, ptr %4, align 8
  %6 = trunc i8 %5 to i1
  ret i1 %6
}

; Function Attrs: mustprogress uwtable
define linkonce_odr noundef ptr @_ZN10MainWindow7meshDocEv(ptr noundef nonnull align 8 dereferenceable(1376) %0) #5 comdat align 2 {
  %2 = alloca ptr, align 8
  %3 = alloca ptr, align 8
  store ptr %0, ptr %3, align 8
  %4 = load ptr, ptr %3, align 8
  %5 = call noundef ptr @_ZNK10MainWindow20currentViewContainerEv(ptr noundef nonnull align 8 dereferenceable(1376) %4)
  %6 = icmp ne ptr %5, null
  br i1 %6, label %7, label %10

7:                                                ; preds = %1
  %8 = call noundef ptr @_ZNK10MainWindow20currentViewContainerEv(ptr noundef nonnull align 8 dereferenceable(1376) %4)
  %9 = getelementptr inbounds %class.MultiViewer_Container, ptr %8, i32 0, i32 1
  store ptr %9, ptr %2, align 8
  br label %11

10:                                               ; preds = %1
  store ptr null, ptr %2, align 8
  br label %11

11:                                               ; preds = %10, %7
  %12 = load ptr, ptr %2, align 8
  ret ptr %12
}

; Function Attrs: mustprogress uwtable
define void @_ZN11LayerDialog29updatePerRasterItemVisibilityEv(ptr noundef nonnull align 8 dereferenceable(256) %0) #5 align 2 {
  %2 = alloca ptr, align 8
  %3 = alloca ptr, align 8
  %4 = alloca i32, align 4
  %5 = alloca ptr, align 8
  %6 = alloca ptr, align 8
  %7 = alloca ptr, align 8
  store ptr %0, ptr %2, align 8
  %8 = load ptr, ptr %2, align 8
  %9 = getelementptr inbounds %class.LayerDialog, ptr %8, i32 0, i32 2
  %10 = load ptr, ptr %9, align 8
  %11 = icmp eq ptr %10, null
  br i1 %11, label %12, label %13

12:                                               ; preds = %1
  br label %62

13:                                               ; preds = %1
  %14 = getelementptr inbounds %class.LayerDialog, ptr %8, i32 0, i32 2
  %15 = load ptr, ptr %14, align 8
  %16 = call noundef ptr @_ZN10MainWindow7meshDocEv(ptr noundef nonnull align 8 dereferenceable(1376) %15)
  store ptr %16, ptr %3, align 8
  %17 = load ptr, ptr %3, align 8
  %18 = icmp eq ptr %17, null
  br i1 %18, label %19, label %20

19:                                               ; preds = %13
  br label %62

20:                                               ; preds = %13
  store i32 0, ptr %4, align 4
  br label %21

21:                                               ; preds = %59, %20
  %22 = load i32, ptr %4, align 4
  %23 = getelementptr inbounds %class.LayerDialog, ptr %8, i32 0, i32 1
  %24 = load ptr, ptr %23, align 8
  %25 = getelementptr inbounds %class.Ui_layerDialog, ptr %24, i32 0, i32 22
  %26 = load ptr, ptr %25, align 8
  %27 = call noundef i32 @_ZNK11QTreeWidget17topLevelItemCountEv(ptr noundef nonnull align 8 dereferenceable(48) %26)
  %28 = icmp slt i32 %22, %27
  br i1 %28, label %29, label %62

29:                                               ; preds = %21
  %30 = getelementptr inbounds %class.LayerDialog, ptr %8, i32 0, i32 1
  %31 = load ptr, ptr %30, align 8
  %32 = getelementptr inbounds %class.Ui_layerDialog, ptr %31, i32 0, i32 22
  %33 = load ptr, ptr %32, align 8
  %34 = load i32, ptr %4, align 4
  %35 = call noundef ptr @_ZNK11QTreeWidget12topLevelItemEi(ptr noundef nonnull align 8 dereferenceable(48) %33, i32 noundef %34)
  store ptr %35, ptr %5, align 8
  %36 = load ptr, ptr %5, align 8
  %37 = icmp eq ptr %36, null
  br i1 %37, label %40, label %38

38:                                               ; preds = %29
  %39 = call ptr @__dynamic_cast(ptr %36, ptr @_ZTI15QTreeWidgetItem, ptr @_ZTI20RasterTreeWidgetItem, i64 0) #4
  br label %41

40:                                               ; preds = %29
  br label %41

41:                                               ; preds = %40, %38
  %42 = phi ptr [ %39, %38 ], [ null, %40 ]
  store ptr %42, ptr %6, align 8
  %43 = load ptr, ptr %6, align 8
  %44 = icmp ne ptr %43, null
  br i1 %44, label %45, label %58

45:                                               ; preds = %41
  %46 = load ptr, ptr %3, align 8
  %47 = load ptr, ptr %6, align 8
  %48 = getelementptr inbounds %class.RasterTreeWidgetItem, ptr %47, i32 0, i32 1
  %49 = load i32, ptr %48, align 4
  %50 = call noundef ptr @_ZN12MeshDocument9getRasterEj(ptr noundef nonnull align 8 dereferenceable(192) %46, i32 noundef %49)
  store ptr %50, ptr %7, align 8
  %51 = load ptr, ptr %7, align 8
  %52 = icmp ne ptr %51, null
  br i1 %52, label %53, label %57

53:                                               ; preds = %45
  %54 = load ptr, ptr %6, align 8
  %55 = load ptr, ptr %7, align 8
  %56 = call noundef zeroext i1 @_ZNK11RasterModel9isVisibleEv(ptr noundef nonnull align 8 dereferenceable(168) %55)
  call void @_ZN20RasterTreeWidgetItem20updateVisibilityIconEb(ptr noundef nonnull align 8 dereferenceable(64) %54, i1 noundef zeroext %56)
  br label %57

57:                                               ; preds = %53, %45
  br label %58

58:                                               ; preds = %57, %41
  br label %59

59:                                               ; preds = %58
  %60 = load i32, ptr %4, align 4
  %61 = add nsw i32 %60, 1
  store i32 %61, ptr %4, align 4
  br label %21, !llvm.loop !21

62:                                               ; preds = %21, %19, %12
  ret void
}