; Function Attrs: mustprogress uwtable
define void @_ZN11LayerDialog29updatePerRasterItemVisibilityEv(ptr nocapture noundef nonnull readonly align 8 dereferenceable(256) %0) local_unnamed_addr #9 align 2 {
  %2 = getelementptr inbounds i8, ptr %0, i64 56
  %3 = load ptr, ptr %2, align 8
  %4 = icmp eq ptr %3, null
  br i1 %4, label %.loopexit, label %5

5:                                                ; preds = %1
  %6 = getelementptr inbounds i8, ptr %3, i64 1368
  %7 = load ptr, ptr %6, align 8
  %.not.i = icmp eq ptr %7, null
  %8 = getelementptr inbounds i8, ptr %7, i64 48
  %spec.select.i = select i1 %.not.i, ptr null, ptr %8
  br i1 %.not.i, label %.loopexit, label %.preheader

.preheader:                                       ; preds = %5
  %9 = getelementptr inbounds i8, ptr %0, i64 48
  %10 = load ptr, ptr %9, align 8
  %11 = getelementptr inbounds i8, ptr %10, i64 176
  %12 = load ptr, ptr %11, align 8
  %13 = tail call noundef i32 @_ZNK11QTreeWidget17topLevelItemCountEv(ptr noundef nonnull align 8 dereferenceable(48) %12)
  %14 = icmp sgt i32 %13, 0
  br i1 %14, label %.lr.ph, label %.loopexit

.lr.ph:                                           ; preds = %.preheader, %.thread
  %.018 = phi i32 [ %31, %.thread ], [ 0, %.preheader ]
  %15 = load ptr, ptr %9, align 8
  %16 = getelementptr inbounds i8, ptr %15, i64 176
  %17 = load ptr, ptr %16, align 8
  %18 = tail call noundef ptr @_ZNK11QTreeWidget12topLevelItemEi(ptr noundef nonnull align 8 dereferenceable(48) %17, i32 noundef %.018)
  %19 = icmp eq ptr %18, null
  br i1 %19, label %.thread, label %20

20:                                               ; preds = %.lr.ph
  %21 = tail call ptr @__dynamic_cast(ptr nonnull %18, ptr nonnull @_ZTI15QTreeWidgetItem, ptr nonnull @_ZTI20RasterTreeWidgetItem, i64 0) #22
  %.not = icmp eq ptr %21, null
  br i1 %.not, label %.thread, label %22

22:                                               ; preds = %20
  %23 = getelementptr inbounds i8, ptr %21, i64 60
  %24 = load i32, ptr %23, align 4
  %25 = tail call noundef ptr @_ZN12MeshDocument9getRasterEj(ptr noundef nonnull align 8 dereferenceable(192) %spec.select.i, i32 noundef %24)
  %.not16 = icmp eq ptr %25, null
  br i1 %.not16, label %.thread, label %26

26:                                               ; preds = %22
  %27 = getelementptr inbounds i8, ptr %25, i64 152
  %28 = load i8, ptr %27, align 8
  %29 = and i8 %28, 1
  %30 = icmp ne i8 %29, 0
  tail call void @_ZN20RasterTreeWidgetItem20updateVisibilityIconEb(ptr noundef nonnull align 8 dereferenceable(64) %21, i1 noundef zeroext %30)
  br label %.thread

.thread:                                          ; preds = %.lr.ph, %20, %26, %22
  %31 = add nuw nsw i32 %.018, 1
  %32 = load ptr, ptr %9, align 8
  %33 = getelementptr inbounds i8, ptr %32, i64 176
  %34 = load ptr, ptr %33, align 8
  %35 = tail call noundef i32 @_ZNK11QTreeWidget17topLevelItemCountEv(ptr noundef nonnull align 8 dereferenceable(48) %34)
  %36 = icmp slt i32 %31, %35
  br i1 %36, label %.lr.ph, label %.loopexit, !llvm.loop !26

.loopexit:                                        ; preds = %.thread, %.preheader, %5, %1
  ret void
}